Certificate:
    Data:
        Version: 3 (0x2)
        Serial Number: 392 (0x188)
        Signature Algorithm: sha1WithRSAEncryption
        Issuer: C=UG, L=Tropic, O=Utopia, OU=Relaxation, CN=the trusted CA
        Validity
            Not Before: Nov  7 13:33:26 2012 GMT
            Not After : Jul 17 13:33:26 2026 GMT
        Subject: C=UG, L=Tropic, O=Utopia, OU=Relaxation, CN=pchip10.cern.ch
        Subject Public Key Info:
            Public Key Algorithm: rsaEncryption
            RSA Public Key: (1024 bit)
                Modulus (1024 bit):
                    00:ed:82:5f:b8:55:d1:70:1a:9a:90:5f:eb:51:ae:
                    7a:16:cd:2e:eb:46:ae:d2:33:7f:bd:e8:b0:a4:84:
                    24:72:69:1c:60:31:d4:df:be:4a:5d:cb:02:18:34:
                    8b:7f:09:f6:e1:5e:1c:ca:6a:a3:44:d5:8d:1a:89:
                    56:bb:68:1f:6d:c3:da:2a:38:3d:65:f3:52:a4:81:
                    4f:b0:f7:f8:ec:ad:57:a9:63:43:e8:3f:5a:e6:2a:
                    5b:61:a3:10:9b:a7:0f:ee:95:bf:b6:9f:e8:f0:84:
                    5d:64:74:d2:42:17:9c:e2:d3:9c:32:68:4a:fd:a5:
                    1c:dc:f7:51:30:6f:c3:ee:0b
                Exponent: 65537 (0x10001)
        X509v3 extensions:
            X509v3 Basic Constraints: 
                CA:FALSE
            X509v3 Key Usage: critical
                Digital Signature, Non Repudiation, Key Encipherment
            Netscape Cert Type: 
                SSL Server
            Netscape Comment: 
                OpenSSL Generated Server Certificate
    Signature Algorithm: sha1WithRSAEncryption
        2d:20:ad:8d:8f:5d:83:11:f7:e6:13:33:d6:df:b6:62:c4:74:
        4c:c3:95:f4:44:10:d0:77:c7:77:2a:ec:c8:6b:2b:94:81:bb:
        33:3d:64:27:39:bd:93:63:78:9d:12:0f:1e:d7:51:f5:11:b8:
        0c:14:62:17:bb:f0:21:ce:9a:71:15:56:4d:90:46:0d:1b:81:
        27:86:ce:31:b8:ec:99:fa:78:fa:19:13:19:3d:e1:be:56:04:
        df:e0:5f:06:8b:ee:d9:a3:86:5f:3e:3d:61:16:62:ee:60:d7:
        bf:da:14:ef:d0:d7:fe:f6:a5:99:a5:ad:cb:08:88:33:04:91:
        7d:87
-----BEGIN CERTIFICATE-----
MIIClzCCAgCgAwIBAgICAYgwDQYJKoZIhvcNAQEFBQAwXTELMAkGA1UEBhMCVUcx
DzANBgNVBAcTBlRyb3BpYzEPMA0GA1UEChMGVXRvcGlhMRMwEQYDVQQLEwpSZWxh
eGF0aW9uMRcwFQYDVQQDEw50aGUgdHJ1c3RlZCBDQTAeFw0xMjExMDcxMzMzMjZa
Fw0yNjA3MTcxMzMzMjZaMF4xCzAJBgNVBAYTAlVHMQ8wDQYDVQQHEwZUcm9waWMx
DzANBgNVBAoTBlV0b3BpYTETMBEGA1UECxMKUmVsYXhhdGlvbjEYMBYGA1UEAxMP
cGNoaXAxMC5jZXJuLmNoMIGfMA0GCSqGSIb3DQEBAQUAA4GNADCBiQKBgQDtgl+4
VdFwGpqQX+tRrnoWzS7rRq7SM3+96LCkhCRyaRxgMdTfvkpdywIYNIt/CfbhXhzK
aqNE1Y0aiVa7aB9tw9oqOD1l81KkgU+w9/jsrVepY0PoP1rmKlthoxCbpw/ulb+2
n+jwhF1kdNJCF5zi05wyaEr9pRzc91Ewb8PuCwIDAQABo2UwYzAJBgNVHRMEAjAA
MA4GA1UdDwEB/wQEAwIF4DARBglghkgBhvhCAQEEBAMCBkAwMwYJYIZIAYb4QgEN
BCYWJE9wZW5TU0wgR2VuZXJhdGVkIFNlcnZlciBDZXJ0aWZpY2F0ZTANBgkqhkiG
9w0BAQUFAAOBgQAtIK2Nj12DEffmEzPW37ZixHRMw5X0RBDQd8d3KuzIayuUgbsz
PWQnOb2TY3idEg8e11H1EbgMFGIXu/AhzppxFVZNkEYNG4Enhs4xuOyZ+nj6GRMZ
PeG+VgTf4F8Gi+7Zo4ZfPj1hFmLuYNe/2hTv0Nf+9qWZpa3LCIgzBJF9hw==
-----END CERTIFICATE-----
