Certificate:
    Data:
        Version: 3 (0x2)
        Serial Number: 404 (0x194)
        Signature Algorithm: sha1WithRSAEncryption
        Issuer: C=UG, L=Tropic, O=Utopia, OU=Relaxation, CN=the trusted CA
        Validity
            Not Before: Nov  7 13:33:27 2012 GMT
            Not After : Jul 17 13:33:27 2026 GMT
        Subject: C=UG, L=Tropic, O=Utopia, OU=Relaxation, CN=trusted clientserver
        Subject Public Key Info:
            Public Key Algorithm: rsaEncryption
            RSA Public Key: (1024 bit)
                Modulus (1024 bit):
                    00:b7:ab:ac:d5:01:db:05:08:a4:2e:34:45:f0:4f:
                    b5:aa:a1:3d:e2:53:2c:00:1e:44:41:52:61:f5:fb:
                    22:9f:d8:fd:a4:54:5a:ca:16:f5:42:74:1b:5e:ba:
                    88:18:fa:8e:76:bb:26:c6:5c:4a:57:c9:ee:54:7e:
                    fa:39:f0:fb:cd:58:bc:e7:34:1b:1a:f8:f4:dd:de:
                    e1:c7:e5:c9:93:f7:93:11:c9:eb:de:36:8b:3b:13:
                    34:19:f7:80:7f:5a:f0:46:65:21:69:3f:94:75:fe:
                    dd:57:f1:a1:24:b7:9f:0a:aa:f7:d6:4a:42:f9:1c:
                    25:9b:3c:d7:2f:37:32:cb:97
                Exponent: 65537 (0x10001)
        X509v3 extensions:
            X509v3 Basic Constraints: 
                CA:FALSE
            X509v3 Key Usage: critical
                Digital Signature, Non Repudiation, Key Encipherment
            Netscape Cert Type: 
                SSL Client, SSL Server, S/MIME
            Netscape Comment: 
                OpenSSL Generated Client Server Certificate
    Signature Algorithm: sha1WithRSAEncryption
        19:9d:60:88:07:b0:bd:10:84:f7:5a:98:d0:c2:98:b2:d0:f5:
        a5:10:d1:b6:e7:26:16:44:a7:0a:e2:c9:98:01:fb:a2:6b:10:
        94:cb:f6:d7:43:18:2e:89:6d:14:2b:d8:b7:e1:d8:a7:ae:bf:
        8a:40:bc:e0:53:c7:b1:d0:ee:e6:60:98:ea:0f:a3:5e:94:43:
        45:44:0a:be:2b:cb:6f:7f:a1:45:87:ff:ce:90:02:8a:d9:80:
        ed:fd:73:77:c8:44:99:69:93:eb:fe:73:c2:23:02:15:a9:47:
        05:68:de:78:ed:b1:c9:9d:f1:44:1c:36:0a:36:dd:f3:d0:59:
        7c:6e
-----BEGIN CERTIFICATE-----
MIICozCCAgygAwIBAgICAZQwDQYJKoZIhvcNAQEFBQAwXTELMAkGA1UEBhMCVUcx
DzANBgNVBAcTBlRyb3BpYzEPMA0GA1UEChMGVXRvcGlhMRMwEQYDVQQLEwpSZWxh
eGF0aW9uMRcwFQYDVQQDEw50aGUgdHJ1c3RlZCBDQTAeFw0xMjExMDcxMzMzMjda
Fw0yNjA3MTcxMzMzMjdaMGMxCzAJBgNVBAYTAlVHMQ8wDQYDVQQHEwZUcm9waWMx
DzANBgNVBAoTBlV0b3BpYTETMBEGA1UECxMKUmVsYXhhdGlvbjEdMBsGA1UEAxMU
dHJ1c3RlZCBjbGllbnRzZXJ2ZXIwgZ8wDQYJKoZIhvcNAQEBBQADgY0AMIGJAoGB
ALerrNUB2wUIpC40RfBPtaqhPeJTLAAeREFSYfX7Ip/Y/aRUWsoW9UJ0G166iBj6
jna7JsZcSlfJ7lR++jnw+81YvOc0Gxr49N3e4cflyZP3kxHJ6942izsTNBn3gH9a
8EZlIWk/lHX+3VfxoSS3nwqq99ZKQvkcJZs81y83MsuXAgMBAAGjbDBqMAkGA1Ud
EwQCMAAwDgYDVR0PAQH/BAQDAgXgMBEGCWCGSAGG+EIBAQQEAwIF4DA6BglghkgB
hvhCAQ0ELRYrT3BlblNTTCBHZW5lcmF0ZWQgQ2xpZW50IFNlcnZlciBDZXJ0aWZp
Y2F0ZTANBgkqhkiG9w0BAQUFAAOBgQAZnWCIB7C9EIT3WpjQwpiy0PWlENG25yYW
RKcK4smYAfuiaxCUy/bXQxguiW0UK9i34dinrr+KQLzgU8ex0O7mYJjqD6NelENF
RAq+K8tvf6FFh//OkAKK2YDt/XN3yESZaZPr/nPCIwIVqUcFaN547bHJnfFEHDYK
Nt3z0Fl8bg==
-----END CERTIFICATE-----
