Certificate:
    Data:
        Version: 3 (0x2)
        Serial Number: 374 (0x176)
        Signature Algorithm: sha1WithRSAEncryption
        Issuer: C=UG, L=Tropic, O=Utopia, OU=Relaxation, CN=the trusted CA
        Validity
            Not Before: Nov  7 13:32:54 2012 GMT
            Not After : Jul 17 13:32:54 2026 GMT
        Subject: C=UG, L=Tropic, O=Utopia, OU=Relaxation, CN=trusted client
        Subject Public Key Info:
            Public Key Algorithm: rsaEncryption
            RSA Public Key: (1024 bit)
                Modulus (1024 bit):
                    00:da:dd:24:0f:4f:c4:c8:18:b2:e3:1e:26:72:d3:
                    4a:93:ff:d3:5e:2f:17:00:4b:60:ad:56:be:fa:03:
                    52:0c:5a:ae:71:2b:1a:ef:e4:05:cf:75:70:c5:82:
                    bc:fe:57:9b:ae:0d:0e:1e:9a:81:f2:0f:c2:2a:1d:
                    43:01:f5:a8:50:5f:67:41:f5:87:19:bf:87:43:b3:
                    a2:25:3d:45:19:97:1a:e0:1d:d1:ae:23:27:14:7a:
                    23:d3:81:61:3f:62:ad:fd:96:6e:98:49:d8:51:71:
                    01:6a:57:03:f6:c4:27:c6:f0:d2:50:6d:16:7a:5f:
                    7a:81:ac:43:44:11:2e:5f:75
                Exponent: 65537 (0x10001)
        X509v3 extensions:
            X509v3 Basic Constraints: 
                CA:FALSE
            X509v3 Key Usage: critical
                Digital Signature, Non Repudiation, Key Encipherment
            Netscape Cert Type: 
                SSL Client, S/MIME
            Netscape Comment: 
                OpenSSL Generated Client Certificate
    Signature Algorithm: sha1WithRSAEncryption
        12:83:89:eb:57:33:64:dd:79:f6:df:b0:26:98:c5:e8:f5:63:
        b6:f0:8b:68:29:57:99:1e:c6:d5:f3:c8:64:f8:12:eb:70:53:
        cd:fc:b5:67:df:63:5c:d9:f8:93:01:aa:0a:97:39:2c:93:7f:
        9d:8b:3b:5a:fd:48:1c:b5:32:ec:7f:3a:cc:ab:77:35:d6:4d:
        17:85:c7:6f:2f:9c:db:95:a5:6c:d4:27:86:3b:06:69:dc:0b:
        0c:53:a4:ba:56:73:24:d8:0c:d2:64:da:2d:b1:3e:88:8e:ce:
        c7:10:6c:4c:e8:3a:56:11:5a:f0:f3:82:35:ae:07:fc:89:6e:
        22:a8
-----BEGIN CERTIFICATE-----
MIICljCCAf+gAwIBAgICAXYwDQYJKoZIhvcNAQEFBQAwXTELMAkGA1UEBhMCVUcx
DzANBgNVBAcTBlRyb3BpYzEPMA0GA1UEChMGVXRvcGlhMRMwEQYDVQQLEwpSZWxh
eGF0aW9uMRcwFQYDVQQDEw50aGUgdHJ1c3RlZCBDQTAeFw0xMjExMDcxMzMyNTRa
Fw0yNjA3MTcxMzMyNTRaMF0xCzAJBgNVBAYTAlVHMQ8wDQYDVQQHEwZUcm9waWMx
DzANBgNVBAoTBlV0b3BpYTETMBEGA1UECxMKUmVsYXhhdGlvbjEXMBUGA1UEAxMO
dHJ1c3RlZCBjbGllbnQwgZ8wDQYJKoZIhvcNAQEBBQADgY0AMIGJAoGBANrdJA9P
xMgYsuMeJnLTSpP/014vFwBLYK1WvvoDUgxarnErGu/kBc91cMWCvP5Xm64NDh6a
gfIPwiodQwH1qFBfZ0H1hxm/h0OzoiU9RRmXGuAd0a4jJxR6I9OBYT9irf2WbphJ
2FFxAWpXA/bEJ8bw0lBtFnpfeoGsQ0QRLl91AgMBAAGjZTBjMAkGA1UdEwQCMAAw
DgYDVR0PAQH/BAQDAgXgMBEGCWCGSAGG+EIBAQQEAwIFoDAzBglghkgBhvhCAQ0E
JhYkT3BlblNTTCBHZW5lcmF0ZWQgQ2xpZW50IENlcnRpZmljYXRlMA0GCSqGSIb3
DQEBBQUAA4GBABKDietXM2TdefbfsCaYxej1Y7bwi2gpV5kextXzyGT4EutwU838
tWffY1zZ+JMBqgqXOSyTf52LO1r9SBy1Mux/OsyrdzXWTReFx28vnNuVpWzUJ4Y7
BmncCwxTpLpWcyTYDNJk2i2xPoiOzscQbEzoOlYRWvDzgjWuB/yJbiKo
-----END CERTIFICATE-----
